; ModuleID = '45/285.c'
source_filename = "45/285.c"
target datalayout = "e-m:e-p270:32:32-p271:32:32-p272:64:64-i64:64-f80:128-n8:16:32:64-S128"
target triple = "x86_64-pc-linux-gnu"

@.str = private unnamed_addr constant [3 x i8] c"%c\00", align 1
@.str.1 = private unnamed_addr constant [3 x i8] c"%d\00", align 1

; Function Attrs: noinline nounwind uwtable
define dso_local void @main() #0 {
  %1 = alloca [50 x i8], align 16
  %2 = alloca [50 x i8], align 16
  %3 = alloca i32, align 4
  %4 = alloca i32, align 4
  %5 = alloca i32, align 4
  %6 = alloca i32, align 4
  %7 = alloca i32, align 4
  %8 = alloca i8*, align 8
  %9 = getelementptr inbounds [50 x i8], [50 x i8]* %1, i64 0, i64 0
  store i8* %9, i8** %8, align 8
  store i32 0, i32* %5, align 4
  br label %10

10:                                               ; preds = %30, %0
  %11 = load i32, i32* %5, align 4
  %12 = icmp sle i32 %11, 5
  br i1 %12, label %13, label %31

13:                                               ; preds = %10
  %14 = load i8*, i8** %8, align 8
  %15 = load i32, i32* %5, align 4
  %16 = sext i32 %15 to i64
  %17 = getelementptr inbounds i8, i8* %14, i64 %16
  %18 = call i32 (i8*, ...) @__isoc99_scanf(i8* getelementptr inbounds ([3 x i8], [3 x i8]* @.str, i64 0, i64 0), i8* %17)
  %19 = load i8*, i8** %8, align 8
  %20 = load i32, i32* %5, align 4
  %21 = sext i32 %20 to i64
  %22 = getelementptr inbounds i8, i8* %19, i64 %21
  %23 = load i8, i8* %22, align 1
  %24 = sext i8 %23 to i32
  %25 = icmp eq i32 %24, 32
  br i1 %25, label %26, label %27

26:                                               ; preds = %13
  br label %31

27:                                               ; preds = %13
  %28 = load i32, i32* %5, align 4
  %29 = add nsw i32 %28, 1
  store i32 %29, i32* %5, align 4
  br label %30

30:                                               ; preds = %27
  br label %10

31:                                               ; preds = %26, %10
  %32 = load i8*, i8** %8, align 8
  %33 = load i32, i32* %5, align 4
  %34 = sext i32 %33 to i64
  %35 = getelementptr inbounds i8, i8* %32, i64 %34
  store i8 0, i8* %35, align 1
  %36 = getelementptr inbounds [50 x i8], [50 x i8]* %2, i64 0, i64 0
  %37 = call i32 (i8*, ...) bitcast (i32 (...)* @gets to i32 (i8*, ...)*)(i8* %36)
  %38 = getelementptr inbounds [50 x i8], [50 x i8]* %1, i64 0, i64 0
  %39 = call i64 @strlen(i8* %38) #3
  %40 = trunc i64 %39 to i32
  store i32 %40, i32* %3, align 4
  %41 = getelementptr inbounds [50 x i8], [50 x i8]* %2, i64 0, i64 0
  %42 = call i64 @strlen(i8* %41) #3
  %43 = trunc i64 %42 to i32
  store i32 %43, i32* %4, align 4
  store i32 0, i32* %5, align 4
  br label %44

44:                                               ; preds = %100, %31
  %45 = load i32, i32* %5, align 4
  %46 = load i32, i32* %4, align 4
  %47 = sub nsw i32 %46, 1
  %48 = icmp sle i32 %45, %47
  br i1 %48, label %49, label %101

49:                                               ; preds = %44
  %50 = load i32, i32* %5, align 4
  %51 = sext i32 %50 to i64
  %52 = getelementptr inbounds [50 x i8], [50 x i8]* %2, i64 0, i64 %51
  %53 = load i8, i8* %52, align 1
  %54 = sext i8 %53 to i32
  %55 = getelementptr inbounds [50 x i8], [50 x i8]* %1, i64 0, i64 0
  %56 = load i8, i8* %55, align 16
  %57 = sext i8 %56 to i32
  %58 = icmp ne i32 %54, %57
  br i1 %58, label %59, label %62

59:                                               ; preds = %49
  %60 = load i32, i32* %5, align 4
  %61 = add nsw i32 %60, 1
  store i32 %61, i32* %5, align 4
  br label %100

62:                                               ; preds = %49
  %63 = load i32, i32* %5, align 4
  store i32 %63, i32* %6, align 4
  br label %64

64:                                               ; preds = %87, %62
  %65 = load i32, i32* %6, align 4
  %66 = load i32, i32* %5, align 4
  %67 = load i32, i32* %3, align 4
  %68 = add nsw i32 %66, %67
  %69 = icmp slt i32 %65, %68
  br i1 %69, label %70, label %90

70:                                               ; preds = %64
  %71 = load i32, i32* %6, align 4
  %72 = sext i32 %71 to i64
  %73 = getelementptr inbounds [50 x i8], [50 x i8]* %2, i64 0, i64 %72
  %74 = load i8, i8* %73, align 1
  %75 = sext i8 %74 to i32
  %76 = load i32, i32* %6, align 4
  %77 = load i32, i32* %5, align 4
  %78 = sub nsw i32 %76, %77
  %79 = sext i32 %78 to i64
  %80 = getelementptr inbounds [50 x i8], [50 x i8]* %1, i64 0, i64 %79
  %81 = load i8, i8* %80, align 1
  %82 = sext i8 %81 to i32
  %83 = icmp eq i32 %75, %82
  br i1 %83, label %84, label %85

84:                                               ; preds = %70
  store i32 0, i32* %7, align 4
  br label %86

85:                                               ; preds = %70
  store i32 1, i32* %7, align 4
  br label %90

86:                                               ; preds = %84
  br label %87

87:                                               ; preds = %86
  %88 = load i32, i32* %6, align 4
  %89 = add nsw i32 %88, 1
  store i32 %89, i32* %6, align 4
  br label %64

90:                                               ; preds = %85, %64
  %91 = load i32, i32* %7, align 4
  %92 = icmp eq i32 %91, 0
  br i1 %92, label %93, label %96

93:                                               ; preds = %90
  %94 = load i32, i32* %5, align 4
  %95 = call i32 (i8*, ...) @printf(i8* getelementptr inbounds ([3 x i8], [3 x i8]* @.str.1, i64 0, i64 0), i32 %94)
  br label %101

96:                                               ; preds = %90
  %97 = load i32, i32* %5, align 4
  %98 = add nsw i32 %97, 1
  store i32 %98, i32* %5, align 4
  br label %99

99:                                               ; preds = %96
  br label %100

100:                                              ; preds = %99, %59
  br label %44

101:                                              ; preds = %93, %44
  ret void
}

declare dso_local i32 @__isoc99_scanf(i8*, ...) #1

declare dso_local i32 @gets(...) #1

; Function Attrs: nounwind readonly
declare dso_local i64 @strlen(i8*) #2

declare dso_local i32 @printf(i8*, ...) #1


!llvm.module.flags = !{!0}
!llvm.ident = !{!1}

!0 = !{i32 1, !"wchar_size", i32 4}
!1 = !{!"clang version 10.0.0-4ubuntu1 "}
